ARM GAS  C:\Users\sumey\AppData\Local\Temp\cc8Asw6s.s 			page 1


   1              		.cpu cortex-m3
   2              		.arch armv7-m
   3              		.fpu softvfp
   4              		.eabi_attribute 20, 1
   5              		.eabi_attribute 21, 1
   6              		.eabi_attribute 23, 3
   7              		.eabi_attribute 24, 1
   8              		.eabi_attribute 25, 1
   9              		.eabi_attribute 26, 1
  10              		.eabi_attribute 30, 1
  11              		.eabi_attribute 34, 1
  12              		.eabi_attribute 18, 4
  13              		.file	"flash_storage.c"
  14              		.text
  15              	.Ltext0:
  16              		.cfi_sections	.debug_frame
  17              		.file 1 "Core/Src/flash_storage.c"
  18              		.section	.text.flash_read_blink_count,"ax",%progbits
  19              		.align	1
  20              		.global	flash_read_blink_count
  21              		.syntax unified
  22              		.thumb
  23              		.thumb_func
  25              	flash_read_blink_count:
  26              	.LFB65:
   1:Core/Src/flash_storage.c **** #include "flash_storage.h"
   2:Core/Src/flash_storage.c **** 
   3:Core/Src/flash_storage.c **** uint8_t flash_read_blink_count(void)
   4:Core/Src/flash_storage.c **** {
  27              		.loc 1 4 1 view -0
  28              		.cfi_startproc
  29              		@ args = 0, pretend = 0, frame = 0
  30              		@ frame_needed = 0, uses_anonymous_args = 0
  31              		@ link register save eliminated.
   5:Core/Src/flash_storage.c ****     uint16_t val = *(__IO uint16_t*)FLASH_BLINK_COUNT_ADDR;
  32              		.loc 1 5 5 view .LVU1
  33              		.loc 1 5 14 is_stmt 0 view .LVU2
  34 0000 044B     		ldr	r3, .L4
  35 0002 1888     		ldrh	r0, [r3]
  36 0004 80B2     		uxth	r0, r0
  37              	.LVL0:
   6:Core/Src/flash_storage.c ****     if (val > 7) {
  38              		.loc 1 6 5 is_stmt 1 view .LVU3
  39              		.loc 1 6 8 is_stmt 0 view .LVU4
  40 0006 0728     		cmp	r0, #7
  41 0008 01D8     		bhi	.L3
   7:Core/Src/flash_storage.c ****         return 4;
   8:Core/Src/flash_storage.c ****     }
   9:Core/Src/flash_storage.c ****     return (uint8_t)val;
  42              		.loc 1 9 5 is_stmt 1 view .LVU5
  43              		.loc 1 9 12 is_stmt 0 view .LVU6
  44 000a C0B2     		uxtb	r0, r0
  45              	.LVL1:
  46              		.loc 1 9 12 view .LVU7
  47 000c 7047     		bx	lr
  48              	.LVL2:
  49              	.L3:
ARM GAS  C:\Users\sumey\AppData\Local\Temp\cc8Asw6s.s 			page 2


   7:Core/Src/flash_storage.c ****         return 4;
  50              		.loc 1 7 16 view .LVU8
  51 000e 0420     		movs	r0, #4
  52              	.LVL3:
  10:Core/Src/flash_storage.c **** }
  53              		.loc 1 10 1 view .LVU9
  54 0010 7047     		bx	lr
  55              	.L5:
  56 0012 00BF     		.align	2
  57              	.L4:
  58 0014 00F80108 		.word	134346752
  59              		.cfi_endproc
  60              	.LFE65:
  62              		.section	.text.flash_write_blink_count,"ax",%progbits
  63              		.align	1
  64              		.global	flash_write_blink_count
  65              		.syntax unified
  66              		.thumb
  67              		.thumb_func
  69              	flash_write_blink_count:
  70              	.LVL4:
  71              	.LFB66:
  11:Core/Src/flash_storage.c **** 
  12:Core/Src/flash_storage.c **** void flash_write_blink_count(uint8_t value)
  13:Core/Src/flash_storage.c **** {
  72              		.loc 1 13 1 is_stmt 1 view -0
  73              		.cfi_startproc
  74              		@ args = 0, pretend = 0, frame = 24
  75              		@ frame_needed = 0, uses_anonymous_args = 0
  76              		.loc 1 13 1 is_stmt 0 view .LVU11
  77 0000 F0B5     		push	{r4, r5, r6, r7, lr}
  78              	.LCFI0:
  79              		.cfi_def_cfa_offset 20
  80              		.cfi_offset 4, -20
  81              		.cfi_offset 5, -16
  82              		.cfi_offset 6, -12
  83              		.cfi_offset 7, -8
  84              		.cfi_offset 14, -4
  85 0002 87B0     		sub	sp, sp, #28
  86              	.LCFI1:
  87              		.cfi_def_cfa_offset 48
  88 0004 0546     		mov	r5, r0
  14:Core/Src/flash_storage.c ****     HAL_FLASH_Unlock();
  89              		.loc 1 14 5 is_stmt 1 view .LVU12
  90 0006 FFF7FEFF 		bl	HAL_FLASH_Unlock
  91              	.LVL5:
  15:Core/Src/flash_storage.c **** 
  16:Core/Src/flash_storage.c ****     FLASH_EraseInitTypeDef eraseInit;
  92              		.loc 1 16 5 view .LVU13
  17:Core/Src/flash_storage.c ****     eraseInit.TypeErase   = FLASH_TYPEERASE_PAGES;
  93              		.loc 1 17 5 view .LVU14
  94              		.loc 1 17 27 is_stmt 0 view .LVU15
  95 000a 0024     		movs	r4, #0
  96 000c 0294     		str	r4, [sp, #8]
  18:Core/Src/flash_storage.c ****     eraseInit.PageAddress = FLASH_BLINK_COUNT_ADDR;
  97              		.loc 1 18 5 is_stmt 1 view .LVU16
  98              		.loc 1 18 27 is_stmt 0 view .LVU17
ARM GAS  C:\Users\sumey\AppData\Local\Temp\cc8Asw6s.s 			page 3


  99 000e 094F     		ldr	r7, .L8
 100 0010 0497     		str	r7, [sp, #16]
  19:Core/Src/flash_storage.c ****     eraseInit.NbPages     = 1;
 101              		.loc 1 19 5 is_stmt 1 view .LVU18
 102              		.loc 1 19 27 is_stmt 0 view .LVU19
 103 0012 0126     		movs	r6, #1
 104 0014 0596     		str	r6, [sp, #20]
  20:Core/Src/flash_storage.c **** 
  21:Core/Src/flash_storage.c ****     uint32_t pageError = 0;
 105              		.loc 1 21 5 is_stmt 1 view .LVU20
 106              		.loc 1 21 14 is_stmt 0 view .LVU21
 107 0016 0194     		str	r4, [sp, #4]
  22:Core/Src/flash_storage.c ****     HAL_FLASHEx_Erase(&eraseInit, &pageError);
 108              		.loc 1 22 5 is_stmt 1 view .LVU22
 109 0018 01A9     		add	r1, sp, #4
 110 001a 02A8     		add	r0, sp, #8
 111 001c FFF7FEFF 		bl	HAL_FLASHEx_Erase
 112              	.LVL6:
  23:Core/Src/flash_storage.c **** 
  24:Core/Src/flash_storage.c ****     HAL_FLASH_Program(FLASH_TYPEPROGRAM_HALFWORD,
 113              		.loc 1 24 5 view .LVU23
 114 0020 2A46     		mov	r2, r5
 115 0022 2346     		mov	r3, r4
 116 0024 3946     		mov	r1, r7
 117 0026 3046     		mov	r0, r6
 118 0028 FFF7FEFF 		bl	HAL_FLASH_Program
 119              	.LVL7:
  25:Core/Src/flash_storage.c ****                       FLASH_BLINK_COUNT_ADDR,
  26:Core/Src/flash_storage.c ****                       (uint16_t)value);
  27:Core/Src/flash_storage.c **** 
  28:Core/Src/flash_storage.c ****     HAL_FLASH_Lock();
 120              		.loc 1 28 5 view .LVU24
 121 002c FFF7FEFF 		bl	HAL_FLASH_Lock
 122              	.LVL8:
  29:Core/Src/flash_storage.c **** }...
 123              		.loc 1 29 1 is_stmt 0 view .LVU25
 124 0030 07B0     		add	sp, sp, #28
 125              	.LCFI2:
 126              		.cfi_def_cfa_offset 20
 127              		@ sp needed
 128 0032 F0BD     		pop	{r4, r5, r6, r7, pc}
 129              	.LVL9:
 130              	.L9:
 131              		.loc 1 29 1 view .LVU26
 132              		.align	2
 133              	.L8:
 134 0034 00F80108 		.word	134346752
 135              		.cfi_endproc
 136              	.LFE66:
 138              		.text
 139              	.Letext0:
 140              		.file 2 "C:/msys64/ucrt64/arm-none-eabi/include/machine/_default_types.h"
 141              		.file 3 "C:/msys64/ucrt64/arm-none-eabi/include/sys/_stdint.h"
 142              		.file 4 "Drivers/STM32F1xx_HAL_Driver/Inc/stm32f1xx_hal_def.h"
 143              		.file 5 "Drivers/STM32F1xx_HAL_Driver/Inc/stm32f1xx_hal_flash_ex.h"
 144              		.file 6 "Drivers/STM32F1xx_HAL_Driver/Inc/stm32f1xx_hal_flash.h"
ARM GAS  C:\Users\sumey\AppData\Local\Temp\cc8Asw6s.s 			page 4

